target datalayout = "e-m:e-p270:32:32-p271:32:32-p272:64:64-i64:64-i128:128-f80:128-n8:16:32:64-S128"
target triple = "x86_64-unknown-linux-gnu"

%struct.P9ArrayV9fsPath = type { i64, [0 x %struct.V9fsPath] }
%struct.V9fsPath = type { i16, ptr }

; Function Attrs: nounwind sspstrong uwtable
define dso_local void @v9fs_path_free(ptr noundef %path) #0 {
entry:
  %path.addr = alloca ptr, align 8
  store ptr %path, ptr %path.addr, align 8
  %0 = load ptr, ptr %path.addr, align 8
  %data = getelementptr inbounds %struct.V9fsPath, ptr %0, i32 0, i32 1
  %1 = load ptr, ptr %data, align 8
  call void @g_free(ptr noundef %1)
  %2 = load ptr, ptr %path.addr, align 8
  %data1 = getelementptr inbounds %struct.V9fsPath, ptr %2, i32 0, i32 1
  store ptr null, ptr %data1, align 8
  %3 = load ptr, ptr %path.addr, align 8
  %size = getelementptr inbounds %struct.V9fsPath, ptr %3, i32 0, i32 0
  store i16 0, ptr %size, align 8
  ret void
}

; Function Attrs: nounwind sspstrong uwtable
define dso_local void @p9array_auto_free_V9fsPath(ptr noundef %auto_var) #0 {
entry:
  %auto_var.addr = alloca ptr, align 8
  %first = alloca ptr, align 8
  %arr = alloca ptr, align 8
  %i = alloca i64, align 8
  store ptr %auto_var, ptr %auto_var.addr, align 8
  %0 = load ptr, ptr %auto_var.addr, align 8
  %1 = load ptr, ptr %0, align 8
  store ptr %1, ptr %first, align 8
  %2 = load ptr, ptr %first, align 8
  %tobool = icmp ne ptr %2, null
  br i1 %tobool, label %if.end, label %if.then

if.then:                                          ; preds = %entry
  br label %return

if.end:                                           ; preds = %entry
  %3 = load ptr, ptr %first, align 8
  %add.ptr = getelementptr i8, ptr %3, i64 -8
  store ptr %add.ptr, ptr %arr, align 8
  store i64 0, ptr %i, align 8
  br label %for.cond

for.cond:                                         ; preds = %for.inc, %if.end
  %4 = load i64, ptr %i, align 8
  %5 = load ptr, ptr %arr, align 8
  %len = getelementptr inbounds %struct.P9ArrayV9fsPath, ptr %5, i32 0, i32 0
  %6 = load i64, ptr %len, align 8
  %cmp = icmp ult i64 %4, %6
  br i1 %cmp, label %for.body, label %for.end

for.body:                                         ; preds = %for.cond
  %7 = load ptr, ptr %arr, align 8
  %first1 = getelementptr inbounds %struct.P9ArrayV9fsPath, ptr %7, i32 0, i32 1
  %8 = load i64, ptr %i, align 8
  %arrayidx = getelementptr [0 x %struct.V9fsPath], ptr %first1, i64 0, i64 %8
  call void @v9fs_path_free(ptr noundef %arrayidx)
  br label %for.inc

for.inc:                                          ; preds = %for.body
  %9 = load i64, ptr %i, align 8
  %inc = add i64 %9, 1
  store i64 %inc, ptr %i, align 8
  br label %for.cond, !llvm.loop !5

for.end:                                          ; preds = %for.cond
  %10 = load ptr, ptr %arr, align 8
  call void @g_free(ptr noundef %10)
  br label %return

return:                                           ; preds = %for.end, %if.then
  ret void
}

; Function Attrs: nounwind sspstrong uwtable
define dso_local void @p9array_new_V9fsPath(ptr noundef %auto_var, i64 noundef %len) #0 {
entry:
  %auto_var.addr = alloca ptr, align 8
  %len.addr = alloca i64, align 8
  %arr = alloca ptr, align 8
  store ptr %auto_var, ptr %auto_var.addr, align 8
  store i64 %len, ptr %len.addr, align 8
  %0 = load ptr, ptr %auto_var.addr, align 8
  call void @p9array_auto_free_V9fsPath(ptr noundef %0)
  %1 = load i64, ptr %len.addr, align 8
  %mul = mul i64 %1, 16
  %add = add i64 8, %mul
  %call = call noalias ptr @g_malloc0(i64 noundef %add) #13
  store ptr %call, ptr %arr, align 8
  %2 = load i64, ptr %len.addr, align 8
  %3 = load ptr, ptr %arr, align 8
  %len1 = getelementptr inbounds %struct.P9ArrayV9fsPath, ptr %3, i32 0, i32 0
  store i64 %2, ptr %len1, align 8
  %4 = load ptr, ptr %arr, align 8
  %first = getelementptr inbounds %struct.P9ArrayV9fsPath, ptr %4, i32 0, i32 1
  %arrayidx = getelementptr [0 x %struct.V9fsPath], ptr %first, i64 0, i64 0
  %5 = load ptr, ptr %auto_var.addr, align 8
  store ptr %arrayidx, ptr %5, align 8
  ret void
}