; Function Attrs: nounwind sspstrong uwtable
define dso_local void @p9array_new_V9fsPath(ptr noundef captures(none) %auto_var, i64 noundef %len) local_unnamed_addr #0 {
entry:
  %0 = load ptr, ptr %auto_var, align 8
  %tobool.not.i = icmp eq ptr %0, null
  br i1 %tobool.not.i, label %p9array_auto_free_V9fsPath.exit, label %if.end.i

if.end.i:                                         ; preds = %entry
  %add.ptr.i = getelementptr i8, ptr %0, i64 -8
  %1 = load i64, ptr %add.ptr.i, align 8
  %cmp6.not.i = icmp eq i64 %1, 0
  br i1 %cmp6.not.i, label %for.end.i, label %for.body.i

for.body.i:                                       ; preds = %if.end.i, %for.body.i
  %i.07.i = phi i64 [ %inc.i, %for.body.i ], [ 0, %if.end.i ]
  %arrayidx.i = getelementptr [0 x %struct.V9fsPath], ptr %0, i64 0, i64 %i.07.i
  %data.i.i = getelementptr inbounds nuw i8, ptr %arrayidx.i, i64 8
  %2 = load ptr, ptr %data.i.i, align 8
  tail call void @g_free(ptr noundef %2) #24
  store ptr null, ptr %data.i.i, align 8
  store i16 0, ptr %arrayidx.i, align 8
  %inc.i = add nuw i64 %i.07.i, 1
  %3 = load i64, ptr %add.ptr.i, align 8
  %cmp.i = icmp ult i64 %inc.i, %3
  br i1 %cmp.i, label %for.body.i, label %for.end.i, !llvm.loop !5

for.end.i:                                        ; preds = %for.body.i, %if.end.i
  tail call void @g_free(ptr noundef nonnull %add.ptr.i) #24
  br label %p9array_auto_free_V9fsPath.exit

p9array_auto_free_V9fsPath.exit:                  ; preds = %entry, %for.end.i
  %mul = shl i64 %len, 4
  %add = or disjoint i64 %mul, 8
  %call = tail call noalias ptr @g_malloc0(i64 noundef %add) #25
  store i64 %len, ptr %call, align 8
  %first = getelementptr inbounds nuw i8, ptr %call, i64 8
  store ptr %first, ptr %auto_var, align 8
  ret void
}